target datalayout = "e-m:e-p270:32:32-p271:32:32-p272:64:64-i64:64-i128:128-f80:128-n8:16:32:64-S128"
target triple = "x86_64-pc-linux-gnu"

%struct._generic_N_Vector = type { ptr, ptr, ptr }
%struct._N_VectorContent_Serial = type { i64, i32, ptr }

; Function Attrs: nounwind uwtable
define void @N_VConst_Serial(double noundef %0, ptr noundef %1) #0 {
  %3 = alloca double, align 8
  %4 = alloca ptr, align 8
  %5 = alloca i64, align 8
  %6 = alloca i64, align 8
  %7 = alloca ptr, align 8
  store double %0, ptr %3, align 8, !tbaa !72
  store ptr %1, ptr %4, align 8, !tbaa !10
  call void @llvm.lifetime.start.p0(i64 8, ptr %5) #6
  call void @llvm.lifetime.start.p0(i64 8, ptr %6) #6
  call void @llvm.lifetime.start.p0(i64 8, ptr %7) #6
  store ptr null, ptr %7, align 8, !tbaa !69
  %8 = load ptr, ptr %4, align 8, !tbaa !10
  %9 = getelementptr inbounds nuw %struct._generic_N_Vector, ptr %8, i32 0, i32 0
  %10 = load ptr, ptr %9, align 8, !tbaa !61
  %11 = getelementptr inbounds nuw %struct._N_VectorContent_Serial, ptr %10, i32 0, i32 0
  %12 = load i64, ptr %11, align 8, !tbaa !62
  store i64 %12, ptr %6, align 8, !tbaa !3
  %13 = load ptr, ptr %4, align 8, !tbaa !10
  %14 = getelementptr inbounds nuw %struct._generic_N_Vector, ptr %13, i32 0, i32 0
  %15 = load ptr, ptr %14, align 8, !tbaa !61
  %16 = getelementptr inbounds nuw %struct._N_VectorContent_Serial, ptr %15, i32 0, i32 2
  %17 = load ptr, ptr %16, align 8, !tbaa !67
  store ptr %17, ptr %7, align 8, !tbaa !69
  store i64 0, ptr %5, align 8, !tbaa !3
  br label %18

18:                                               ; preds = %27, %2
  %19 = load i64, ptr %5, align 8, !tbaa !3
  %20 = load i64, ptr %6, align 8, !tbaa !3
  %21 = icmp slt i64 %19, %20
  br i1 %21, label %22, label %30

22:                                               ; preds = %18
  %23 = load double, ptr %3, align 8, !tbaa !72
  %24 = load ptr, ptr %7, align 8, !tbaa !69
  %25 = load i64, ptr %5, align 8, !tbaa !3
  %26 = getelementptr inbounds double, ptr %24, i64 %25
  store double %23, ptr %26, align 8, !tbaa !72
  br label %27

27:                                               ; preds = %22
  %28 = load i64, ptr %5, align 8, !tbaa !3
  %29 = add nsw i64 %28, 1
  store i64 %29, ptr %5, align 8, !tbaa !3
  br label %18

30:                                               ; preds = %18
  call void @llvm.lifetime.end.p0(i64 8, ptr %7) #6
  call void @llvm.lifetime.end.p0(i64 8, ptr %6) #6
  call void @llvm.lifetime.end.p0(i64 8, ptr %5) #6
  ret void
}